target datalayout = "e-m:e-p270:32:32-p271:32:32-p272:64:64-i64:64-i128:128-f80:128-n8:16:32:64-S128"
target triple = "x86_64-pc-linux-gnu"

%struct.nk_rect = type { float, float, float, float }
%struct.nk_vec2 = type { float, float }
%struct.nk_input = type { %struct.nk_keyboard, %struct.nk_mouse }
%struct.nk_keyboard = type { [30 x %struct.nk_key], [16 x i8], i32 }
%struct.nk_key = type { i32, i32 }
%struct.nk_mouse = type { [4 x %struct.nk_mouse_button], %struct.nk_vec2, %struct.nk_vec2, %struct.nk_vec2, %struct.nk_vec2, i8, i8, i8 }
%struct.nk_mouse_button = type { i32, i32, %struct.nk_vec2 }

; Function Attrs: nounwind uwtable
define i32 @nk_input_has_mouse_click_in_rect(ptr noundef %0, i32 noundef %1, <2 x float> %2, <2 x float> %3) #2 {
  %5 = alloca i32, align 4
  %6 = alloca %struct.nk_rect, align 4
  %7 = alloca ptr, align 8
  %8 = alloca i32, align 4
  %9 = alloca ptr, align 8
  %10 = alloca i32, align 4
  %11 = getelementptr inbounds nuw { <2 x float>, <2 x float> }, ptr %6, i32 0, i32 0
  store <2 x float> %2, ptr %11, align 4
  %12 = getelementptr inbounds nuw { <2 x float>, <2 x float> }, ptr %6, i32 0, i32 1
  store <2 x float> %3, ptr %12, align 4
  store ptr %0, ptr %7, align 8, !tbaa !788
  store i32 %1, ptr %8, align 4, !tbaa !13
  call void @llvm.lifetime.start.p0(i64 8, ptr %9) #10
  %13 = load ptr, ptr %7, align 8, !tbaa !788
  %14 = icmp ne ptr %13, null
  br i1 %14, label %16, label %15

15:                                               ; preds = %4
  store i32 0, ptr %5, align 4
  store i32 1, ptr %10, align 4
  br label %62

16:                                               ; preds = %4
  %17 = load ptr, ptr %7, align 8, !tbaa !788
  %18 = getelementptr inbounds nuw %struct.nk_input, ptr %17, i32 0, i32 1
  %19 = getelementptr inbounds nuw %struct.nk_mouse, ptr %18, i32 0, i32 0
  %20 = load i32, ptr %8, align 4, !tbaa !13
  %21 = zext i32 %20 to i64
  %22 = getelementptr inbounds nuw [4 x %struct.nk_mouse_button], ptr %19, i64 0, i64 %21
  store ptr %22, ptr %9, align 8, !tbaa !808
  %23 = getelementptr inbounds nuw %struct.nk_rect, ptr %6, i32 0, i32 0
  %24 = load float, ptr %23, align 4, !tbaa !8
  %25 = load ptr, ptr %9, align 8, !tbaa !808
  %26 = getelementptr inbounds nuw %struct.nk_mouse_button, ptr %25, i32 0, i32 2
  %27 = getelementptr inbounds nuw %struct.nk_vec2, ptr %26, i32 0, i32 0
  %28 = load float, ptr %27, align 4, !tbaa !810
  %29 = fcmp ole float %24, %28
  br i1 %29, label %30, label %60

30:                                               ; preds = %16
  %31 = load ptr, ptr %9, align 8, !tbaa !808
  %32 = getelementptr inbounds nuw %struct.nk_mouse_button, ptr %31, i32 0, i32 2
  %33 = getelementptr inbounds nuw %struct.nk_vec2, ptr %32, i32 0, i32 0
  %34 = load float, ptr %33, align 4, !tbaa !810
  %35 = getelementptr inbounds nuw %struct.nk_rect, ptr %6, i32 0, i32 0
  %36 = load float, ptr %35, align 4, !tbaa !8
  %37 = getelementptr inbounds nuw %struct.nk_rect, ptr %6, i32 0, i32 2
  %38 = load float, ptr %37, align 4, !tbaa !11
  %39 = fadd float %36, %38
  %40 = fcmp olt float %34, %39
  br i1 %40, label %41, label %60

41:                                               ; preds = %30
  %42 = getelementptr inbounds nuw %struct.nk_rect, ptr %6, i32 0, i32 1
  %43 = load float, ptr %42, align 4, !tbaa !10
  %44 = load ptr, ptr %9, align 8, !tbaa !808
  %45 = getelementptr inbounds nuw %struct.nk_mouse_button, ptr %44, i32 0, i32 2
  %46 = getelementptr inbounds nuw %struct.nk_vec2, ptr %45, i32 0, i32 1
  %47 = load float, ptr %46, align 4, !tbaa !811
  %48 = fcmp ole float %43, %47
  br i1 %48, label %49, label %60

49:                                               ; preds = %41
  %50 = load ptr, ptr %9, align 8, !tbaa !808
  %51 = getelementptr inbounds nuw %struct.nk_mouse_button, ptr %50, i32 0, i32 2
  %52 = getelementptr inbounds nuw %struct.nk_vec2, ptr %51, i32 0, i32 1
  %53 = load float, ptr %52, align 4, !tbaa !811
  %54 = getelementptr inbounds nuw %struct.nk_rect, ptr %6, i32 0, i32 1
  %55 = load float, ptr %54, align 4, !tbaa !10
  %56 = getelementptr inbounds nuw %struct.nk_rect, ptr %6, i32 0, i32 3
  %57 = load float, ptr %56, align 4, !tbaa !12
  %58 = fadd float %55, %57
  %59 = fcmp olt float %53, %58
  br i1 %59, label %61, label %60

60:                                               ; preds = %49, %41, %30, %16
  store i32 0, ptr %5, align 4
  store i32 1, ptr %10, align 4
  br label %62

61:                                               ; preds = %49
  store i32 1, ptr %5, align 4
  store i32 1, ptr %10, align 4
  br label %62

62:                                               ; preds = %61, %60, %15
  call void @llvm.lifetime.end.p0(i64 8, ptr %9) #10
  %63 = load i32, ptr %5, align 4
  ret i32 %63
}

; Function Attrs: nounwind uwtable
define i32 @nk_input_has_mouse_click_down_in_rect(ptr noundef %0, i32 noundef %1, <2 x float> %2, <2 x float> %3, i32 noundef %4) #2 {
  %6 = alloca i32, align 4
  %7 = alloca %struct.nk_rect, align 4
  %8 = alloca ptr, align 8
  %9 = alloca i32, align 4
  %10 = alloca i32, align 4
  %11 = alloca ptr, align 8
  %12 = alloca i32, align 4
  %13 = getelementptr inbounds nuw { <2 x float>, <2 x float> }, ptr %7, i32 0, i32 0
  store <2 x float> %2, ptr %13, align 4
  %14 = getelementptr inbounds nuw { <2 x float>, <2 x float> }, ptr %7, i32 0, i32 1
  store <2 x float> %3, ptr %14, align 4
  store ptr %0, ptr %8, align 8, !tbaa !788
  store i32 %1, ptr %9, align 4, !tbaa !13
  store i32 %4, ptr %10, align 4, !tbaa !13
  call void @llvm.lifetime.start.p0(i64 8, ptr %11) #10
  %15 = load ptr, ptr %8, align 8, !tbaa !788
  %16 = icmp ne ptr %15, null
  br i1 %16, label %18, label %17

17:                                               ; preds = %5
  store i32 0, ptr %6, align 4
  store i32 1, ptr %12, align 4
  br label %42

18:                                               ; preds = %5
  %19 = load ptr, ptr %8, align 8, !tbaa !788
  %20 = getelementptr inbounds nuw %struct.nk_input, ptr %19, i32 0, i32 1
  %21 = getelementptr inbounds nuw %struct.nk_mouse, ptr %20, i32 0, i32 0
  %22 = load i32, ptr %9, align 4, !tbaa !13
  %23 = zext i32 %22 to i64
  %24 = getelementptr inbounds nuw [4 x %struct.nk_mouse_button], ptr %21, i64 0, i64 %23
  store ptr %24, ptr %11, align 8, !tbaa !808
  %25 = load ptr, ptr %8, align 8, !tbaa !788
  %26 = load i32, ptr %9, align 4, !tbaa !13
  %27 = getelementptr inbounds nuw { <2 x float>, <2 x float> }, ptr %7, i32 0, i32 0
  %28 = load <2 x float>, ptr %27, align 4
  %29 = getelementptr inbounds nuw { <2 x float>, <2 x float> }, ptr %7, i32 0, i32 1
  %30 = load <2 x float>, ptr %29, align 4
  %31 = call i32 @nk_input_has_mouse_click_in_rect(ptr noundef %25, i32 noundef %26, <2 x float> %28, <2 x float> %30)
  %32 = icmp ne i32 %31, 0
  br i1 %32, label %33, label %39

33:                                               ; preds = %18
  %34 = load ptr, ptr %11, align 8, !tbaa !808
  %35 = getelementptr inbounds nuw %struct.nk_mouse_button, ptr %34, i32 0, i32 0
  %36 = load i32, ptr %35, align 4, !tbaa !807
  %37 = load i32, ptr %10, align 4, !tbaa !13
  %38 = icmp eq i32 %36, %37
  br label %39

39:                                               ; preds = %33, %18
  %40 = phi i1 [ false, %18 ], [ %38, %33 ]
  %41 = zext i1 %40 to i32
  store i32 %41, ptr %6, align 4
  store i32 1, ptr %12, align 4
  br label %42

42:                                               ; preds = %39, %17
  call void @llvm.lifetime.end.p0(i64 8, ptr %11) #10
  %43 = load i32, ptr %6, align 4
  ret i32 %43
}

; Function Attrs: nounwind uwtable
define i32 @nk_input_is_mouse_click_down_in_rect(ptr noundef %0, i32 noundef %1, <2 x float> %2, <2 x float> %3, i32 noundef %4) #2 {
  %6 = alloca i32, align 4
  %7 = alloca %struct.nk_rect, align 4
  %8 = alloca ptr, align 8
  %9 = alloca i32, align 4
  %10 = alloca i32, align 4
  %11 = alloca ptr, align 8
  %12 = alloca i32, align 4
  %13 = getelementptr inbounds nuw { <2 x float>, <2 x float> }, ptr %7, i32 0, i32 0
  store <2 x float> %2, ptr %13, align 4
  %14 = getelementptr inbounds nuw { <2 x float>, <2 x float> }, ptr %7, i32 0, i32 1
  store <2 x float> %3, ptr %14, align 4
  store ptr %0, ptr %8, align 8, !tbaa !788
  store i32 %1, ptr %9, align 4, !tbaa !13
  store i32 %4, ptr %10, align 4, !tbaa !13
  call void @llvm.lifetime.start.p0(i64 8, ptr %11) #10
  %15 = load ptr, ptr %8, align 8, !tbaa !788
  %16 = icmp ne ptr %15, null
  br i1 %16, label %18, label %17

17:                                               ; preds = %5
  store i32 0, ptr %6, align 4
  store i32 1, ptr %12, align 4
  br label %42

18:                                               ; preds = %5
  %19 = load ptr, ptr %8, align 8, !tbaa !788
  %20 = getelementptr inbounds nuw %struct.nk_input, ptr %19, i32 0, i32 1
  %21 = getelementptr inbounds nuw %struct.nk_mouse, ptr %20, i32 0, i32 0
  %22 = load i32, ptr %9, align 4, !tbaa !13
  %23 = zext i32 %22 to i64
  %24 = getelementptr inbounds nuw [4 x %struct.nk_mouse_button], ptr %21, i64 0, i64 %23
  store ptr %24, ptr %11, align 8, !tbaa !808
  %25 = load ptr, ptr %8, align 8, !tbaa !788
  %26 = load i32, ptr %9, align 4, !tbaa !13
  %27 = load i32, ptr %10, align 4, !tbaa !13
  %28 = getelementptr inbounds nuw { <2 x float>, <2 x float> }, ptr %7, i32 0, i32 0
  %29 = load <2 x float>, ptr %28, align 4
  %30 = getelementptr inbounds nuw { <2 x float>, <2 x float> }, ptr %7, i32 0, i32 1
  %31 = load <2 x float>, ptr %30, align 4
  %32 = call i32 @nk_input_has_mouse_click_down_in_rect(ptr noundef %25, i32 noundef %26, <2 x float> %29, <2 x float> %31, i32 noundef %27)
  %33 = icmp ne i32 %32, 0
  br i1 %33, label %34, label %39

34:                                               ; preds = %18
  %35 = load ptr, ptr %11, align 8, !tbaa !808
  %36 = getelementptr inbounds nuw %struct.nk_mouse_button, ptr %35, i32 0, i32 1
  %37 = load i32, ptr %36, align 4, !tbaa !790
  %38 = icmp ne i32 %37, 0
  br label %39

39:                                               ; preds = %34, %18
  %40 = phi i1 [ false, %18 ], [ %38, %34 ]
  %41 = select i1 %40, i32 1, i32 0
  store i32 %41, ptr %6, align 4
  store i32 1, ptr %12, align 4
  br label %42

42:                                               ; preds = %39, %17
  call void @llvm.lifetime.end.p0(i64 8, ptr %11) #10
  %43 = load i32, ptr %6, align 4
  ret i32 %43
}