; Function Attrs: mustprogress nofree norecurse nosync nounwind willreturn memory(argmem: read) uwtable
define range(i32 0, 2) i32 @nk_input_is_mouse_click_down_in_rect(ptr noundef readonly captures(address_is_null) %0, i32 noundef %1, <2 x float> %2, <2 x float> %3, i32 noundef %4) local_unnamed_addr #3 {
  %.not = icmp eq ptr %0, null
  br i1 %.not, label %nk_input_has_mouse_click_down_in_rect.exit.thread, label %6

6:                                                ; preds = %5
  %7 = zext i32 %1 to i64
  %.sroa.0.0.vec.extract.i.i = extractelement <2 x float> %2, i64 0
  %.idx.i.i = shl nuw nsw i64 %7, 4
  %8 = getelementptr i8, ptr %0, i64 268
  %9 = getelementptr i8, ptr %8, i64 %.idx.i.i
  %10 = load float, ptr %9, align 4, !tbaa !736
  %11 = fcmp ole float %.sroa.0.0.vec.extract.i.i, %10
  %12 = fadd <2 x float> %2, %3
  %13 = extractelement <2 x float> %12, i64 0
  %14 = fcmp olt float %10, %13
  %or.cond.i.i = select i1 %11, i1 %14, i1 false
  br i1 %or.cond.i.i, label %nk_input_has_mouse_click_in_rect.exit.i, label %nk_input_has_mouse_click_down_in_rect.exit.thread

nk_input_has_mouse_click_in_rect.exit.i:          ; preds = %6
  %.sroa.0.4.vec.extract.i.i = extractelement <2 x float> %2, i64 1
  %15 = getelementptr inbounds nuw i8, ptr %9, i64 4
  %16 = load float, ptr %15, align 4, !tbaa !737
  %17 = fcmp ugt float %.sroa.0.4.vec.extract.i.i, %16
  %18 = fadd <2 x float> %2, %3
  %19 = extractelement <2 x float> %18, i64 1
  %20 = fcmp uge float %16, %19
  %or.cond16.i.not.i = select i1 %17, i1 true, i1 %20
  br i1 %or.cond16.i.not.i, label %nk_input_has_mouse_click_down_in_rect.exit.thread, label %nk_input_has_mouse_click_down_in_rect.exit

nk_input_has_mouse_click_down_in_rect.exit:       ; preds = %nk_input_has_mouse_click_in_rect.exit.i
  %21 = getelementptr inbounds nuw i8, ptr %0, i64 260
  %22 = getelementptr inbounds nuw [4 x %struct.nk_mouse_button], ptr %21, i64 0, i64 %7
  %23 = load i32, ptr %22, align 4, !tbaa !735
  %.not11 = icmp eq i32 %23, %4
  br i1 %.not11, label %24, label %nk_input_has_mouse_click_down_in_rect.exit.thread

24:                                               ; preds = %nk_input_has_mouse_click_down_in_rect.exit
  %25 = getelementptr i8, ptr %0, i64 264
  %26 = getelementptr i8, ptr %25, i64 %.idx.i.i
  %27 = load i32, ptr %26, align 4, !tbaa !718
  %28 = icmp ne i32 %27, 0
  %29 = zext i1 %28 to i32
  br label %nk_input_has_mouse_click_down_in_rect.exit.thread

nk_input_has_mouse_click_down_in_rect.exit.thread: ; preds = %6, %nk_input_has_mouse_click_in_rect.exit.i, %nk_input_has_mouse_click_down_in_rect.exit, %24, %5
  %.0 = phi i32 [ 0, %5 ], [ 0, %nk_input_has_mouse_click_down_in_rect.exit ], [ %29, %24 ], [ 0, %nk_input_has_mouse_click_in_rect.exit.i ], [ 0, %6 ]
  ret i32 %.0
}